; ModuleID = '7/853.c'
source_filename = "7/853.c"
target datalayout = "e-m:e-p270:32:32-p271:32:32-p272:64:64-i64:64-f80:128-n8:16:32:64-S128"
target triple = "x86_64-pc-linux-gnu"

@.str = private unnamed_addr constant [7 x i8] c"%s%s%s\00", align 1
@s = common dso_local global [10000 x i8] zeroinitializer, align 16
@s1 = common dso_local global [10000 x i8] zeroinitializer, align 16
@s2 = common dso_local global [10000 x i8] zeroinitializer, align 16
@.str.1 = private unnamed_addr constant [4 x i8] c"%s\0A\00", align 1
@.str.2 = private unnamed_addr constant [4 x i8] c"%1c\00", align 1
@.str.3 = private unnamed_addr constant [3 x i8] c"%s\00", align 1
@.str.4 = private unnamed_addr constant [2 x i8] c"\0A\00", align 1

; Function Attrs: noinline nounwind uwtable
define dso_local i32 @Len(i8* %0) #0 {
  %2 = alloca i8*, align 8
  %3 = alloca i32, align 4
  store i8* %0, i8** %2, align 8
  store i32 0, i32* %3, align 4
  br label %4

4:                                                ; preds = %12, %1
  %5 = load i8*, i8** %2, align 8
  %6 = load i32, i32* %3, align 4
  %7 = sext i32 %6 to i64
  %8 = getelementptr inbounds i8, i8* %5, i64 %7
  %9 = load i8, i8* %8, align 1
  %10 = icmp ne i8 %9, 0
  br i1 %10, label %11, label %15

11:                                               ; preds = %4
  br label %12

12:                                               ; preds = %11
  %13 = load i32, i32* %3, align 4
  %14 = add nsw i32 %13, 1
  store i32 %14, i32* %3, align 4
  br label %4

15:                                               ; preds = %4
  %16 = load i32, i32* %3, align 4
  ret i32 %16
}

; Function Attrs: noinline nounwind uwtable
define dso_local i32 @Match(i8* %0, i8* %1) #0 {
  %3 = alloca i32, align 4
  %4 = alloca i8*, align 8
  %5 = alloca i8*, align 8
  %6 = alloca i32, align 4
  %7 = alloca i32, align 4
  store i8* %0, i8** %4, align 8
  store i8* %1, i8** %5, align 8
  %8 = load i8*, i8** %5, align 8
  %9 = call i32 @Len(i8* %8)
  store i32 %9, i32* %7, align 4
  store i32 0, i32* %6, align 4
  br label %10

10:                                               ; preds = %30, %2
  %11 = load i32, i32* %6, align 4
  %12 = load i32, i32* %7, align 4
  %13 = icmp slt i32 %11, %12
  br i1 %13, label %14, label %33

14:                                               ; preds = %10
  %15 = load i8*, i8** %4, align 8
  %16 = load i32, i32* %6, align 4
  %17 = sext i32 %16 to i64
  %18 = getelementptr inbounds i8, i8* %15, i64 %17
  %19 = load i8, i8* %18, align 1
  %20 = sext i8 %19 to i32
  %21 = load i8*, i8** %5, align 8
  %22 = load i32, i32* %6, align 4
  %23 = sext i32 %22 to i64
  %24 = getelementptr inbounds i8, i8* %21, i64 %23
  %25 = load i8, i8* %24, align 1
  %26 = sext i8 %25 to i32
  %27 = icmp ne i32 %20, %26
  br i1 %27, label %28, label %29

28:                                               ; preds = %14
  store i32 0, i32* %3, align 4
  br label %34

29:                                               ; preds = %14
  br label %30

30:                                               ; preds = %29
  %31 = load i32, i32* %6, align 4
  %32 = add nsw i32 %31, 1
  store i32 %32, i32* %6, align 4
  br label %10

33:                                               ; preds = %10
  store i32 1, i32* %3, align 4
  br label %34

34:                                               ; preds = %33, %28
  %35 = load i32, i32* %3, align 4
  ret i32 %35
}

; Function Attrs: noinline nounwind uwtable
define dso_local i32 @Find(i8* %0, i8* %1) #0 {
  %3 = alloca i32, align 4
  %4 = alloca i8*, align 8
  %5 = alloca i8*, align 8
  %6 = alloca i32, align 4
  %7 = alloca i32, align 4
  store i8* %0, i8** %4, align 8
  store i8* %1, i8** %5, align 8
  %8 = load i8*, i8** %4, align 8
  %9 = call i32 @Len(i8* %8)
  store i32 %9, i32* %7, align 4
  store i32 0, i32* %6, align 4
  br label %10

10:                                               ; preds = %25, %2
  %11 = load i32, i32* %6, align 4
  %12 = load i32, i32* %7, align 4
  %13 = icmp slt i32 %11, %12
  br i1 %13, label %14, label %28

14:                                               ; preds = %10
  %15 = load i8*, i8** %4, align 8
  %16 = load i32, i32* %6, align 4
  %17 = sext i32 %16 to i64
  %18 = getelementptr inbounds i8, i8* %15, i64 %17
  %19 = load i8*, i8** %5, align 8
  %20 = call i32 @Match(i8* %18, i8* %19)
  %21 = icmp ne i32 %20, 0
  br i1 %21, label %22, label %24

22:                                               ; preds = %14
  %23 = load i32, i32* %6, align 4
  store i32 %23, i32* %3, align 4
  br label %30

24:                                               ; preds = %14
  br label %25

25:                                               ; preds = %24
  %26 = load i32, i32* %6, align 4
  %27 = add nsw i32 %26, 1
  store i32 %27, i32* %6, align 4
  br label %10

28:                                               ; preds = %10
  %29 = load i32, i32* %7, align 4
  store i32 %29, i32* %3, align 4
  br label %30

30:                                               ; preds = %28, %22
  %31 = load i32, i32* %3, align 4
  ret i32 %31
}

; Function Attrs: noinline nounwind uwtable
define dso_local i32 @main() #0 {
  %1 = alloca i32, align 4
  %2 = alloca i32, align 4
  %3 = alloca i32, align 4
  %4 = alloca i32, align 4
  store i32 0, i32* %1, align 4
  %5 = call i32 (i8*, ...) @__isoc99_scanf(i8* getelementptr inbounds ([7 x i8], [7 x i8]* @.str, i64 0, i64 0), i8* getelementptr inbounds ([10000 x i8], [10000 x i8]* @s, i64 0, i64 0), i8* getelementptr inbounds ([10000 x i8], [10000 x i8]* @s1, i64 0, i64 0), i8* getelementptr inbounds ([10000 x i8], [10000 x i8]* @s2, i64 0, i64 0))
  %6 = call i32 @Len(i8* getelementptr inbounds ([10000 x i8], [10000 x i8]* @s, i64 0, i64 0))
  store i32 %6, i32* %2, align 4
  %7 = call i32 @Find(i8* getelementptr inbounds ([10000 x i8], [10000 x i8]* @s, i64 0, i64 0), i8* getelementptr inbounds ([10000 x i8], [10000 x i8]* @s1, i64 0, i64 0))
  store i32 %7, i32* %4, align 4
  %8 = load i32, i32* %4, align 4
  %9 = load i32, i32* %2, align 4
  %10 = icmp eq i32 %8, %9
  br i1 %10, label %11, label %13

11:                                               ; preds = %0
  %12 = call i32 (i8*, ...) @printf(i8* getelementptr inbounds ([4 x i8], [4 x i8]* @.str.1, i64 0, i64 0), i8* getelementptr inbounds ([10000 x i8], [10000 x i8]* @s, i64 0, i64 0))
  br label %49

13:                                               ; preds = %0
  store i32 0, i32* %3, align 4
  br label %14

14:                                               ; preds = %25, %13
  %15 = load i32, i32* %3, align 4
  %16 = load i32, i32* %4, align 4
  %17 = icmp slt i32 %15, %16
  br i1 %17, label %18, label %28

18:                                               ; preds = %14
  %19 = load i32, i32* %3, align 4
  %20 = sext i32 %19 to i64
  %21 = getelementptr inbounds [10000 x i8], [10000 x i8]* @s, i64 0, i64 %20
  %22 = load i8, i8* %21, align 1
  %23 = sext i8 %22 to i32
  %24 = call i32 (i8*, ...) @printf(i8* getelementptr inbounds ([4 x i8], [4 x i8]* @.str.2, i64 0, i64 0), i32 %23)
  br label %25

25:                                               ; preds = %18
  %26 = load i32, i32* %3, align 4
  %27 = add nsw i32 %26, 1
  store i32 %27, i32* %3, align 4
  br label %14

28:                                               ; preds = %14
  %29 = call i32 (i8*, ...) @printf(i8* getelementptr inbounds ([3 x i8], [3 x i8]* @.str.3, i64 0, i64 0), i8* getelementptr inbounds ([10000 x i8], [10000 x i8]* @s2, i64 0, i64 0))
  %30 = call i32 @Len(i8* getelementptr inbounds ([10000 x i8], [10000 x i8]* @s1, i64 0, i64 0))
  %31 = load i32, i32* %4, align 4
  %32 = add nsw i32 %30, %31
  store i32 %32, i32* %3, align 4
  br label %33

33:                                               ; preds = %44, %28
  %34 = load i32, i32* %3, align 4
  %35 = load i32, i32* %2, align 4
  %36 = icmp slt i32 %34, %35
  br i1 %36, label %37, label %47

37:                                               ; preds = %33
  %38 = load i32, i32* %3, align 4
  %39 = sext i32 %38 to i64
  %40 = getelementptr inbounds [10000 x i8], [10000 x i8]* @s, i64 0, i64 %39
  %41 = load i8, i8* %40, align 1
  %42 = sext i8 %41 to i32
  %43 = call i32 (i8*, ...) @printf(i8* getelementptr inbounds ([4 x i8], [4 x i8]* @.str.2, i64 0, i64 0), i32 %42)
  br label %44

44:                                               ; preds = %37
  %45 = load i32, i32* %3, align 4
  %46 = add nsw i32 %45, 1
  store i32 %46, i32* %3, align 4
  br label %33

47:                                               ; preds = %33
  %48 = call i32 (i8*, ...) @printf(i8* getelementptr inbounds ([2 x i8], [2 x i8]* @.str.4, i64 0, i64 0))
  br label %49

49:                                               ; preds = %47, %11
  ret i32 0
}

declare dso_local i32 @__isoc99_scanf(i8*, ...) #1

declare dso_local i32 @printf(i8*, ...) #1


!llvm.module.flags = !{!0}
!llvm.ident = !{!1}

!0 = !{i32 1, !"wchar_size", i32 4}
!1 = !{!"clang version 10.0.0-4ubuntu1 "}
